; Function Attrs: nofree norecurse nosync nounwind memory(readwrite, inaccessiblemem: none) uwtable
define void @Cnf_DataLiftAndFlipLits(ptr noundef readonly captures(none) %0, i32 noundef %1, ptr noundef readonly captures(none) %2) local_unnamed_addr #10 {
  %4 = getelementptr i8, ptr %2, i64 4
  %.val10 = load i32, ptr %4, align 4, !tbaa !20
  %5 = icmp sgt i32 %.val10, 0
  br i1 %5, label %.lr.ph, label %.critedge

.lr.ph:                                           ; preds = %3
  %6 = getelementptr i8, ptr %2, i64 8
  %.val9 = load ptr, ptr %6, align 8, !tbaa !23
  %7 = getelementptr inbounds nuw i8, ptr %0, i64 24
  %8 = load ptr, ptr %7, align 8, !tbaa !51
  %9 = load ptr, ptr %8, align 8, !tbaa !16
  %10 = shl nsw i32 %1, 1
  br label %11

11:                                               ; preds = %.lr.ph, %11
  %indvars.iv = phi i64 [ 0, %.lr.ph ], [ %indvars.iv.next, %11 ]
  %12 = getelementptr inbounds nuw i32, ptr %.val9, i64 %indvars.iv
  %13 = load i32, ptr %12, align 4, !tbaa !28
  %14 = sext i32 %13 to i64
  %15 = getelementptr inbounds i32, ptr %9, i64 %14
  %16 = load i32, ptr %15, align 4, !tbaa !28
  %17 = xor i32 %16, 1
  %18 = add nsw i32 %17, %10
  store i32 %18, ptr %15, align 4, !tbaa !28
  %indvars.iv.next = add nuw nsw i64 %indvars.iv, 1
  %.val = load i32, ptr %4, align 4, !tbaa !20
  %19 = sext i32 %.val to i64
  %20 = icmp slt i64 %indvars.iv.next, %19
  br i1 %20, label %11, label %.critedge, !llvm.loop !64

.critedge:                                        ; preds = %11, %3
  ret void
}